target datalayout = "e-m:e-p270:32:32-p271:32:32-p272:64:64-i64:64-i128:128-f80:128-n8:16:32:64-S128"
target triple = "x86_64-pc-linux-gnu"

%struct.opj_jp2 = type { ptr, ptr, ptr, i32, i32, i32, i32, i32, i32, i32, i32, i32, i32, i32, i32, i32, i32, ptr, ptr, i64, i64, i32, i32, i32, %struct.opj_jp2_color, i32, i8, i8 }
%struct.opj_jp2_color = type { ptr, i32, ptr, ptr, i8 }
%struct.opj_jp2_pclr = type { ptr, ptr, ptr, ptr, i16, i8 }
%struct.opj_jp2_cmap_comp = type { i16, i8, i8 }

@.str.70 = private unnamed_addr constant [46 x i8] c"Need to read a PCLR box before the CMAP box.\0A\00", align 1
@.str.71 = private unnamed_addr constant [31 x i8] c"Only one CMAP box is allowed.\0A\00", align 1
@.str.72 = private unnamed_addr constant [33 x i8] c"Insufficient data for CMAP box.\0A\00", align 1

; Function Attrs: nounwind uwtable
define internal i32 @opj_jp2_read_cmap(ptr noundef %0, ptr noundef %1, i32 noundef %2, ptr noundef %3) #0 {
  %5 = alloca i32, align 4
  %6 = alloca ptr, align 8
  %7 = alloca ptr, align 8
  %8 = alloca i32, align 4
  %9 = alloca ptr, align 8
  %10 = alloca ptr, align 8
  %11 = alloca i8, align 1
  %12 = alloca i8, align 1
  %13 = alloca i32, align 4
  %14 = alloca i32, align 4
  store ptr %0, ptr %6, align 8, !tbaa !3
  store ptr %1, ptr %7, align 8, !tbaa !106
  store i32 %2, ptr %8, align 4, !tbaa !39
  store ptr %3, ptr %9, align 8, !tbaa !12
  call void @llvm.lifetime.start.p0(i64 8, ptr %10) #5
  call void @llvm.lifetime.start.p0(i64 1, ptr %11) #5
  call void @llvm.lifetime.start.p0(i64 1, ptr %12) #5
  call void @llvm.lifetime.start.p0(i64 4, ptr %13) #5
  %15 = load ptr, ptr %6, align 8, !tbaa !3
  %16 = getelementptr inbounds nuw %struct.opj_jp2, ptr %15, i32 0, i32 24
  %17 = getelementptr inbounds nuw %struct.opj_jp2_color, ptr %16, i32 0, i32 3
  %18 = load ptr, ptr %17, align 8, !tbaa !28
  %19 = icmp eq ptr %18, null
  br i1 %19, label %20, label %23

20:                                               ; preds = %4
  %21 = load ptr, ptr %9, align 8, !tbaa !12
  %22 = call i32 (ptr, i32, ptr, ...) @opj_event_msg(ptr noundef %21, i32 noundef 1, ptr noundef @.str.70)
  store i32 0, ptr %5, align 4
  store i32 1, ptr %14, align 4
  br label %105

23:                                               ; preds = %4
  %24 = load ptr, ptr %6, align 8, !tbaa !3
  %25 = getelementptr inbounds nuw %struct.opj_jp2, ptr %24, i32 0, i32 24
  %26 = getelementptr inbounds nuw %struct.opj_jp2_color, ptr %25, i32 0, i32 3
  %27 = load ptr, ptr %26, align 8, !tbaa !28
  %28 = getelementptr inbounds nuw %struct.opj_jp2_pclr, ptr %27, i32 0, i32 3
  %29 = load ptr, ptr %28, align 8, !tbaa !29
  %30 = icmp ne ptr %29, null
  br i1 %30, label %31, label %34

31:                                               ; preds = %23
  %32 = load ptr, ptr %9, align 8, !tbaa !12
  %33 = call i32 (ptr, i32, ptr, ...) @opj_event_msg(ptr noundef %32, i32 noundef 1, ptr noundef @.str.71)
  store i32 0, ptr %5, align 4
  store i32 1, ptr %14, align 4
  br label %105

34:                                               ; preds = %23
  %35 = load ptr, ptr %6, align 8, !tbaa !3
  %36 = getelementptr inbounds nuw %struct.opj_jp2, ptr %35, i32 0, i32 24
  %37 = getelementptr inbounds nuw %struct.opj_jp2_color, ptr %36, i32 0, i32 3
  %38 = load ptr, ptr %37, align 8, !tbaa !28
  %39 = getelementptr inbounds nuw %struct.opj_jp2_pclr, ptr %38, i32 0, i32 5
  %40 = load i8, ptr %39, align 2, !tbaa !120
  store i8 %40, ptr %12, align 1, !tbaa !26
  %41 = load i32, ptr %8, align 4, !tbaa !39
  %42 = load i8, ptr %12, align 1, !tbaa !26
  %43 = zext i8 %42 to i32
  %44 = mul i32 %43, 4
  %45 = icmp ult i32 %41, %44
  br i1 %45, label %46, label %49

46:                                               ; preds = %34
  %47 = load ptr, ptr %9, align 8, !tbaa !12
  %48 = call i32 (ptr, i32, ptr, ...) @opj_event_msg(ptr noundef %47, i32 noundef 1, ptr noundef @.str.72)
  store i32 0, ptr %5, align 4
  store i32 1, ptr %14, align 4
  br label %105

49:                                               ; preds = %34
  %50 = load i8, ptr %12, align 1, !tbaa !26
  %51 = zext i8 %50 to i64
  %52 = mul i64 %51, 4
  %53 = call ptr @opj_malloc(i64 noundef %52)
  store ptr %53, ptr %10, align 8, !tbaa !124
  %54 = load ptr, ptr %10, align 8, !tbaa !124
  %55 = icmp ne ptr %54, null
  br i1 %55, label %57, label %56

56:                                               ; preds = %49
  store i32 0, ptr %5, align 4
  store i32 1, ptr %14, align 4
  br label %105

57:                                               ; preds = %49
  store i8 0, ptr %11, align 1, !tbaa !26
  br label %58

58:                                               ; preds = %95, %57
  %59 = load i8, ptr %11, align 1, !tbaa !26
  %60 = zext i8 %59 to i32
  %61 = load i8, ptr %12, align 1, !tbaa !26
  %62 = zext i8 %61 to i32
  %63 = icmp slt i32 %60, %62
  br i1 %63, label %64, label %98

64:                                               ; preds = %58
  %65 = load ptr, ptr %7, align 8, !tbaa !106
  call void @opj_read_bytes_LE(ptr noundef %65, ptr noundef %13, i32 noundef 2)
  %66 = load ptr, ptr %7, align 8, !tbaa !106
  %67 = getelementptr inbounds i8, ptr %66, i64 2
  store ptr %67, ptr %7, align 8, !tbaa !106
  %68 = load i32, ptr %13, align 4, !tbaa !39
  %69 = trunc i32 %68 to i16
  %70 = load ptr, ptr %10, align 8, !tbaa !124
  %71 = load i8, ptr %11, align 1, !tbaa !26
  %72 = zext i8 %71 to i64
  %73 = getelementptr inbounds nuw %struct.opj_jp2_cmap_comp, ptr %70, i64 %72
  %74 = getelementptr inbounds nuw %struct.opj_jp2_cmap_comp, ptr %73, i32 0, i32 0
  store i16 %69, ptr %74, align 2, !tbaa !125
  %75 = load ptr, ptr %7, align 8, !tbaa !106
  call void @opj_read_bytes_LE(ptr noundef %75, ptr noundef %13, i32 noundef 1)
  %76 = load ptr, ptr %7, align 8, !tbaa !106
  %77 = getelementptr inbounds nuw i8, ptr %76, i32 1
  store ptr %77, ptr %7, align 8, !tbaa !106
  %78 = load i32, ptr %13, align 4, !tbaa !39
  %79 = trunc i32 %78 to i8
  %80 = load ptr, ptr %10, align 8, !tbaa !124
  %81 = load i8, ptr %11, align 1, !tbaa !26
  %82 = zext i8 %81 to i64
  %83 = getelementptr inbounds nuw %struct.opj_jp2_cmap_comp, ptr %80, i64 %82
  %84 = getelementptr inbounds nuw %struct.opj_jp2_cmap_comp, ptr %83, i32 0, i32 1
  store i8 %79, ptr %84, align 2, !tbaa !128
  %85 = load ptr, ptr %7, align 8, !tbaa !106
  call void @opj_read_bytes_LE(ptr noundef %85, ptr noundef %13, i32 noundef 1)
  %86 = load ptr, ptr %7, align 8, !tbaa !106
  %87 = getelementptr inbounds nuw i8, ptr %86, i32 1
  store ptr %87, ptr %7, align 8, !tbaa !106
  %88 = load i32, ptr %13, align 4, !tbaa !39
  %89 = trunc i32 %88 to i8
  %90 = load ptr, ptr %10, align 8, !tbaa !124
  %91 = load i8, ptr %11, align 1, !tbaa !26
  %92 = zext i8 %91 to i64
  %93 = getelementptr inbounds nuw %struct.opj_jp2_cmap_comp, ptr %90, i64 %92
  %94 = getelementptr inbounds nuw %struct.opj_jp2_cmap_comp, ptr %93, i32 0, i32 2
  store i8 %89, ptr %94, align 1, !tbaa !129
  br label %95

95:                                               ; preds = %64
  %96 = load i8, ptr %11, align 1, !tbaa !26
  %97 = add i8 %96, 1
  store i8 %97, ptr %11, align 1, !tbaa !26
  br label %58, !llvm.loop !183

98:                                               ; preds = %58
  %99 = load ptr, ptr %10, align 8, !tbaa !124
  %100 = load ptr, ptr %6, align 8, !tbaa !3
  %101 = getelementptr inbounds nuw %struct.opj_jp2, ptr %100, i32 0, i32 24
  %102 = getelementptr inbounds nuw %struct.opj_jp2_color, ptr %101, i32 0, i32 3
  %103 = load ptr, ptr %102, align 8, !tbaa !28
  %104 = getelementptr inbounds nuw %struct.opj_jp2_pclr, ptr %103, i32 0, i32 3
  store ptr %99, ptr %104, align 8, !tbaa !29
  store i32 1, ptr %5, align 4
  store i32 1, ptr %14, align 4
  br label %105

105:                                              ; preds = %98, %56, %46, %31, %20
  call void @llvm.lifetime.end.p0(i64 4, ptr %13) #5
  call void @llvm.lifetime.end.p0(i64 1, ptr %12) #5
  call void @llvm.lifetime.end.p0(i64 1, ptr %11) #5
  call void @llvm.lifetime.end.p0(i64 8, ptr %10) #5
  %106 = load i32, ptr %5, align 4
  ret i32 %106
}