; Function Attrs: nounwind uwtable
define internal range(i32 0, 2) i32 @opj_jp2_read_cmap(ptr noundef readonly captures(none) %0, ptr noundef %1, i32 noundef %2, ptr noundef %3) #0 {
  %5 = alloca i32, align 4
  call void @llvm.lifetime.start.p0(i64 4, ptr nonnull %5) #6
  %6 = getelementptr inbounds nuw i8, ptr %0, i64 152
  %7 = load ptr, ptr %6, align 8, !tbaa !51
  %8 = icmp eq ptr %7, null
  br i1 %8, label %9, label %11

9:                                                ; preds = %4
  %10 = tail call i32 (ptr, i32, ptr, ...) @opj_event_msg(ptr noundef %3, i32 noundef 1, ptr noundef nonnull @.str.70) #6
  br label %42

11:                                               ; preds = %4
  %12 = getelementptr inbounds nuw i8, ptr %7, i64 24
  %13 = load ptr, ptr %12, align 8, !tbaa !30
  %.not = icmp eq ptr %13, null
  br i1 %.not, label %16, label %14

14:                                               ; preds = %11
  %15 = tail call i32 (ptr, i32, ptr, ...) @opj_event_msg(ptr noundef %3, i32 noundef 1, ptr noundef nonnull @.str.71) #6
  br label %42

16:                                               ; preds = %11
  %17 = getelementptr inbounds nuw i8, ptr %7, i64 34
  %18 = load i8, ptr %17, align 2, !tbaa !33
  %19 = zext i8 %18 to i32
  %20 = shl nuw nsw i32 %19, 2
  %21 = icmp ult i32 %2, %20
  br i1 %21, label %22, label %24

22:                                               ; preds = %16
  %23 = tail call i32 (ptr, i32, ptr, ...) @opj_event_msg(ptr noundef %3, i32 noundef 1, ptr noundef nonnull @.str.72) #6
  br label %42

24:                                               ; preds = %16
  %25 = zext i8 %18 to i64
  %26 = shl nuw nsw i64 %25, 2
  %27 = tail call ptr @opj_malloc(i64 noundef %26) #6
  %.not31 = icmp eq ptr %27, null
  br i1 %.not31, label %42, label %.preheader

.preheader:                                       ; preds = %24
  %.not34 = icmp eq i8 %18, 0
  br i1 %.not34, label %._crit_edge, label %.lr.ph

.lr.ph:                                           ; preds = %.preheader, %.lr.ph
  %indvars.iv = phi i64 [ %indvars.iv.next, %.lr.ph ], [ 0, %.preheader ]
  %.02832 = phi ptr [ %36, %.lr.ph ], [ %1, %.preheader ]
  call void @opj_read_bytes_LE(ptr noundef %.02832, ptr noundef nonnull %5, i32 noundef 2) #6
  %28 = getelementptr inbounds nuw i8, ptr %.02832, i64 2
  %29 = load i32, ptr %5, align 4, !tbaa !46
  %30 = trunc i32 %29 to i16
  %31 = getelementptr inbounds nuw %struct.opj_jp2_cmap_comp, ptr %27, i64 %indvars.iv
  store i16 %30, ptr %31, align 2, !tbaa !41
  call void @opj_read_bytes_LE(ptr noundef nonnull %28, ptr noundef nonnull %5, i32 noundef 1) #6
  %32 = getelementptr inbounds nuw i8, ptr %.02832, i64 3
  %33 = load i32, ptr %5, align 4, !tbaa !46
  %34 = trunc i32 %33 to i8
  %35 = getelementptr inbounds nuw i8, ptr %31, i64 2
  store i8 %34, ptr %35, align 2, !tbaa !44
  call void @opj_read_bytes_LE(ptr noundef nonnull %32, ptr noundef nonnull %5, i32 noundef 1) #6
  %36 = getelementptr inbounds nuw i8, ptr %.02832, i64 4
  %37 = load i32, ptr %5, align 4, !tbaa !46
  %38 = trunc i32 %37 to i8
  %39 = getelementptr inbounds nuw i8, ptr %31, i64 3
  store i8 %38, ptr %39, align 1, !tbaa !45
  %indvars.iv.next = add nuw nsw i64 %indvars.iv, 1
  %exitcond.not = icmp eq i64 %indvars.iv.next, %25
  br i1 %exitcond.not, label %._crit_edge, label %.lr.ph, !llvm.loop !149

._crit_edge:                                      ; preds = %.lr.ph, %.preheader
  %40 = load ptr, ptr %6, align 8, !tbaa !51
  %41 = getelementptr inbounds nuw i8, ptr %40, i64 24
  store ptr %27, ptr %41, align 8, !tbaa !30
  br label %42

42:                                               ; preds = %24, %._crit_edge, %22, %14, %9
  %.0 = phi i32 [ 0, %9 ], [ 0, %14 ], [ 0, %22 ], [ 1, %._crit_edge ], [ 0, %24 ]
  call void @llvm.lifetime.end.p0(i64 4, ptr nonnull %5) #6
  ret i32 %.0
}